target datalayout = "e-m:e-p270:32:32-p271:32:32-p272:64:64-i64:64-i128:128-f80:128-n8:16:32:64-S128"
target triple = "x86_64-pc-linux-gnu"

%union.SourceSpan = type { i64 }
%struct.Decl_ = type { ptr, ptr, %union.SourceSpan, i64, %union.anon, i32, %union.anon.0, i64, ptr, ptr, ptr, %union.anon.1 }
%union.anon = type { ptr }
%union.anon.0 = type { i16 }
%union.anon.1 = type { %struct.FuncDecl }
%struct.FuncDecl = type { i32, [4 x i8], %struct.Signature_, i32, i32, %union.anon.8 }
%struct.Signature_ = type <{ %struct.CalleeAttributes, i16, i8, i32, i32, [4 x i8], ptr }>
%struct.CalleeAttributes = type { i8 }
%union.anon.8 = type { %struct.anon.9 }
%struct.anon.9 = type { i16, %union.anon.10 }
%union.anon.10 = type { ptr }
%struct.VarDecl_ = type { i32, i32, %union.anon.14, %union.anon.15 }
%union.anon.14 = type { ptr }
%union.anon.15 = type { %struct.anon.16 }
%struct.anon.16 = type { ptr, %union.SourceSpan }
%struct.anon.17 = type { ptr, %union.anon.18 }
%union.anon.18 = type { ptr }
%struct.DefineDecl = type { i8, %union.anon.4 }
%union.anon.4 = type { %struct.anon.5 }
%struct.anon.5 = type { %union.anon.6, ptr }
%union.anon.6 = type { %struct.anon.7 }
%struct.anon.7 = type { ptr, ptr, %union.SourceSpan }

; Function Attrs: nounwind uwtable
define dso_local ptr @llvm_get_opt_ref(ptr noundef %0, ptr noundef %1) #0 {
  %3 = alloca ptr, align 8
  %4 = alloca ptr, align 8
  %5 = alloca ptr, align 8
  %6 = alloca ptr, align 8
  %7 = alloca ptr, align 8
  store ptr %0, ptr %6, align 8
  store ptr %1, ptr %7, align 8
  %8 = load ptr, ptr %6, align 8
  %9 = load ptr, ptr %7, align 8
  %10 = call ptr @llvm_get_ref(ptr noundef %8, ptr noundef %9)
  %11 = load ptr, ptr %7, align 8
  store ptr %11, ptr %4, align 8
  %12 = load ptr, ptr %4, align 8
  %13 = getelementptr inbounds %struct.Decl_, ptr %12, i32 0, i32 3
  %14 = load i64, ptr %13, align 8
  %15 = and i64 %14, 127
  %16 = trunc i64 %15 to i32
  %17 = icmp eq i32 %16, 9
  br i1 %17, label %18, label %23

18:                                               ; preds = %2
  %19 = load ptr, ptr %4, align 8
  %20 = getelementptr inbounds %struct.Decl_, ptr %19, i32 0, i32 11
  %21 = getelementptr inbounds %struct.DefineDecl, ptr %20, i32 0, i32 1
  %22 = load ptr, ptr %21, align 8
  store ptr %22, ptr %3, align 8
  br label %25

23:                                               ; preds = %2
  %24 = load ptr, ptr %4, align 8
  store ptr %24, ptr %3, align 8
  br label %25

25:                                               ; preds = %23, %18
  %26 = load ptr, ptr %3, align 8
  store ptr %26, ptr %7, align 8
  %27 = load ptr, ptr %7, align 8
  %28 = getelementptr inbounds %struct.Decl_, ptr %27, i32 0, i32 3
  %29 = load i64, ptr %28, align 8
  %30 = and i64 %29, 127
  %31 = trunc i64 %30 to i32
  %32 = icmp ne i32 %31, 26
  br i1 %32, label %33, label %34

33:                                               ; preds = %25
  store ptr null, ptr %5, align 8
  br label %40

34:                                               ; preds = %25
  %35 = load ptr, ptr %7, align 8
  %36 = getelementptr inbounds %struct.Decl_, ptr %35, i32 0, i32 11
  %37 = getelementptr inbounds %struct.VarDecl_, ptr %36, i32 0, i32 3
  %38 = getelementptr inbounds %struct.anon.17, ptr %37, i32 0, i32 1
  %39 = load ptr, ptr %38, align 8
  store ptr %39, ptr %5, align 8
  br label %40

40:                                               ; preds = %34, %33
  %41 = load ptr, ptr %5, align 8
  ret ptr %41
}