; Function Attrs: nounwind uwtable
define dso_local ptr @llvm_get_opt_ref(ptr noundef %0, ptr noundef %1) local_unnamed_addr #0 {
  %3 = tail call ptr @llvm_get_ref(ptr noundef %0, ptr noundef %1)
  %4 = getelementptr inbounds i8, ptr %1, i64 24
  %5 = load i64, ptr %4, align 8
  %6 = and i64 %5, 127
  %7 = icmp eq i64 %6, 9
  br i1 %7, label %8, label %11

8:                                                ; preds = %2
  %9 = getelementptr inbounds i8, ptr %1, i64 88
  %10 = load ptr, ptr %9, align 8
  %.phi.trans.insert = getelementptr inbounds i8, ptr %10, i64 24
  %.pre = load i64, ptr %.phi.trans.insert, align 8
  br label %11

11:                                               ; preds = %2, %8
  %12 = phi i64 [ %.pre, %8 ], [ %5, %2 ]
  %.0 = phi ptr [ %10, %8 ], [ %1, %2 ]
  %13 = and i64 %12, 127
  %.not = icmp eq i64 %13, 26
  br i1 %.not, label %14, label %17

14:                                               ; preds = %11
  %15 = getelementptr inbounds i8, ptr %.0, i64 104
  %16 = load ptr, ptr %15, align 8
  br label %17

17:                                               ; preds = %11, %14
  %.010 = phi ptr [ %16, %14 ], [ null, %11 ]
  ret ptr %.010
}